target datalayout = "e-m:e-p270:32:32-p271:32:32-p272:64:64-i64:64-i128:128-f80:128-n8:16:32:64-S128"
target triple = "x86_64-unknown-linux-gnu"

%struct.hooks_s = type { ptr, ptr, ptr, ptr }

; Function Attrs: nounwind uwtable
define internal i32 @experimental_hooks_install_ctl(ptr noundef %tsd, ptr noundef %mib, i64 noundef %miblen, ptr noundef %oldp, ptr noundef %oldlenp, ptr noundef %newp, i64 noundef %newlen) #0 {
entry:
  %tsd.addr.i = alloca ptr, align 8
  %tsd.addr = alloca ptr, align 8
  %mib.addr = alloca ptr, align 8
  %miblen.addr = alloca i64, align 8
  %oldp.addr = alloca ptr, align 8
  %oldlenp.addr = alloca ptr, align 8
  %newp.addr = alloca ptr, align 8
  %newlen.addr = alloca i64, align 8
  %ret = alloca i32, align 4
  %hooks = alloca %struct.hooks_s, align 8
  %handle = alloca ptr, align 8
  %copylen = alloca i64, align 8
  store ptr %tsd, ptr %tsd.addr, align 8
  store ptr %mib, ptr %mib.addr, align 8
  store i64 %miblen, ptr %miblen.addr, align 8
  store ptr %oldp, ptr %oldp.addr, align 8
  store ptr %oldlenp, ptr %oldlenp.addr, align 8
  store ptr %newp, ptr %newp.addr, align 8
  store i64 %newlen, ptr %newlen.addr, align 8
  %0 = load ptr, ptr %oldp.addr, align 8
  %cmp = icmp eq ptr %0, null
  br i1 %cmp, label %if.then, label %lor.lhs.false

lor.lhs.false:                                    ; preds = %entry
  %1 = load ptr, ptr %oldlenp.addr, align 8
  %cmp1 = icmp eq ptr %1, null
  br i1 %cmp1, label %if.then, label %lor.lhs.false2

lor.lhs.false2:                                   ; preds = %lor.lhs.false
  %2 = load ptr, ptr %newp.addr, align 8
  %cmp3 = icmp eq ptr %2, null
  br i1 %cmp3, label %if.then, label %if.end

if.then:                                          ; preds = %lor.lhs.false2, %lor.lhs.false, %entry
  store i32 22, ptr %ret, align 4
  br label %label_return

if.end:                                           ; preds = %lor.lhs.false2
  br label %do.body

do.body:                                          ; preds = %if.end
  %3 = load ptr, ptr %newp.addr, align 8
  %cmp4 = icmp ne ptr %3, null
  br i1 %cmp4, label %if.then5, label %if.end9

if.then5:                                         ; preds = %do.body
  %4 = load i64, ptr %newlen.addr, align 8
  %cmp6 = icmp ne i64 %4, 32
  br i1 %cmp6, label %if.then7, label %if.end8

if.then7:                                         ; preds = %if.then5
  store i32 22, ptr %ret, align 4
  br label %label_return

if.end8:                                          ; preds = %if.then5
  %5 = load ptr, ptr %newp.addr, align 8
  call void @llvm.memcpy.p0.p0.i64(ptr align 8 %hooks, ptr align 8 %5, i64 32, i1 false)
  br label %if.end9

if.end9:                                          ; preds = %if.end8, %do.body
  br label %do.end

do.end:                                           ; preds = %if.end9
  %6 = load ptr, ptr %tsd.addr, align 8
  store ptr %6, ptr %tsd.addr.i, align 8
  %7 = load ptr, ptr %tsd.addr.i, align 8
  %call10 = call ptr @hook_install(ptr noundef %7, ptr noundef %hooks)
  store ptr %call10, ptr %handle, align 8
  %8 = load ptr, ptr %handle, align 8
  %cmp11 = icmp eq ptr %8, null
  br i1 %cmp11, label %if.then12, label %if.end13

if.then12:                                        ; preds = %do.end
  store i32 11, ptr %ret, align 4
  br label %label_return

if.end13:                                         ; preds = %do.end
  br label %do.body14

do.body14:                                        ; preds = %if.end13
  %9 = load ptr, ptr %oldp.addr, align 8
  %cmp15 = icmp ne ptr %9, null
  br i1 %cmp15, label %land.lhs.true, label %if.end22

land.lhs.true:                                    ; preds = %do.body14
  %10 = load ptr, ptr %oldlenp.addr, align 8
  %cmp16 = icmp ne ptr %10, null
  br i1 %cmp16, label %if.then17, label %if.end22

if.then17:                                        ; preds = %land.lhs.true
  %11 = load ptr, ptr %oldlenp.addr, align 8
  %12 = load i64, ptr %11, align 8
  %cmp18 = icmp ne i64 %12, 8
  br i1 %cmp18, label %if.then19, label %if.end21

if.then19:                                        ; preds = %if.then17
  %13 = load ptr, ptr %oldlenp.addr, align 8
  %14 = load i64, ptr %13, align 8
  %cmp20 = icmp ule i64 8, %14
  br i1 %cmp20, label %cond.true, label %cond.false

cond.true:                                        ; preds = %if.then19
  br label %cond.end

cond.false:                                       ; preds = %if.then19
  %15 = load ptr, ptr %oldlenp.addr, align 8
  %16 = load i64, ptr %15, align 8
  br label %cond.end

cond.end:                                         ; preds = %cond.false, %cond.true
  %cond = phi i64 [ 8, %cond.true ], [ %16, %cond.false ]
  store i64 %cond, ptr %copylen, align 8
  %17 = load ptr, ptr %oldp.addr, align 8
  %18 = load i64, ptr %copylen, align 8
  call void @llvm.memcpy.p0.p0.i64(ptr align 1 %17, ptr align 1 %handle, i64 %18, i1 false)
  %19 = load i64, ptr %copylen, align 8
  %20 = load ptr, ptr %oldlenp.addr, align 8
  store i64 %19, ptr %20, align 8
  store i32 22, ptr %ret, align 4
  br label %label_return

if.end21:                                         ; preds = %if.then17
  %21 = load ptr, ptr %handle, align 8
  %22 = load ptr, ptr %oldp.addr, align 8
  store ptr %21, ptr %22, align 8
  br label %if.end22

if.end22:                                         ; preds = %if.end21, %land.lhs.true, %do.body14
  br label %do.end23

do.end23:                                         ; preds = %if.end22
  store i32 0, ptr %ret, align 4
  br label %label_return

label_return:                                     ; preds = %do.end23, %cond.end, %if.then12, %if.then7, %if.then
  %23 = load i32, ptr %ret, align 4
  ret i32 %23
}