; Function Attrs: nounwind uwtable
define internal noundef i32 @experimental_hooks_install_ctl(ptr noundef %tsd, ptr nocapture readnone %mib, i64 %miblen, ptr noundef writeonly %oldp, ptr noundef %oldlenp, ptr noundef readonly %newp, i64 noundef %newlen) #0 {
entry:
  %hooks = alloca %struct.hooks_s, align 8
  %handle = alloca ptr, align 8
  %cmp = icmp ne ptr %oldp, null
  %cmp1 = icmp ne ptr %oldlenp, null
  %or.cond.not17 = and i1 %cmp, %cmp1
  %cmp3 = icmp ne ptr %newp, null
  %or.cond1.not16 = and i1 %or.cond.not17, %cmp3
  %cmp6.not = icmp eq i64 %newlen, 32
  %or.cond15 = and i1 %or.cond1.not16, %cmp6.not
  br i1 %or.cond15, label %if.end8, label %label_return

if.end8:                                          ; preds = %entry
  call void @llvm.memcpy.p0.p0.i64(ptr noundef nonnull align 8 dereferenceable(32) %hooks, ptr noundef nonnull align 8 dereferenceable(32) %newp, i64 32, i1 false)
  %call10 = call ptr @hook_install(ptr noundef %tsd, ptr noundef nonnull %hooks) #14
  store ptr %call10, ptr %handle, align 8
  %cmp11 = icmp eq ptr %call10, null
  br i1 %cmp11, label %label_return, label %if.then17

if.then17:                                        ; preds = %if.end8
  %0 = load i64, ptr %oldlenp, align 8
  %cmp18.not = icmp eq i64 %0, 8
  br i1 %cmp18.not, label %if.end21, label %if.then19

if.then19:                                        ; preds = %if.then17
  %spec.select = call i64 @llvm.umin.i64(i64 %0, i64 8)
  call void @llvm.memcpy.p0.p0.i64(ptr nonnull align 1 %oldp, ptr nonnull align 8 %handle, i64 %spec.select, i1 false)
  store i64 %spec.select, ptr %oldlenp, align 8
  br label %label_return

if.end21:                                         ; preds = %if.then17
  store ptr %call10, ptr %oldp, align 8
  br label %label_return

label_return:                                     ; preds = %if.end8, %entry, %if.end21, %if.then19
  %ret.0 = phi i32 [ 22, %if.then19 ], [ 0, %if.end21 ], [ 22, %entry ], [ 11, %if.end8 ]
  ret i32 %ret.0
}